; ModuleID = '58/1231.c'
source_filename = "58/1231.c"
target datalayout = "e-m:e-p270:32:32-p271:32:32-p272:64:64-i64:64-f80:128-n8:16:32:64-S128"
target triple = "x86_64-pc-linux-gnu"

@.str = private unnamed_addr constant [4 x i8] c"%d\0A\00", align 1

; Function Attrs: noinline nounwind uwtable
define dso_local i32 @panduan(i8* %0) #0 {
  %2 = alloca i8*, align 8
  %3 = alloca i32, align 4
  %4 = alloca i32, align 4
  %5 = alloca i32, align 4
  %6 = alloca i32, align 4
  store i8* %0, i8** %2, align 8
  store i32 1, i32* %3, align 4
  %7 = load i8*, i8** %2, align 8
  %8 = load i8, i8* %7, align 1
  %9 = sext i8 %8 to i32
  %10 = icmp sge i32 %9, 97
  br i1 %10, label %11, label %16

11:                                               ; preds = %1
  %12 = load i8*, i8** %2, align 8
  %13 = load i8, i8* %12, align 1
  %14 = sext i8 %13 to i32
  %15 = icmp sle i32 %14, 122
  br i1 %15, label %32, label %16

16:                                               ; preds = %11, %1
  %17 = load i8*, i8** %2, align 8
  %18 = load i8, i8* %17, align 1
  %19 = sext i8 %18 to i32
  %20 = icmp sge i32 %19, 65
  br i1 %20, label %21, label %26

21:                                               ; preds = %16
  %22 = load i8*, i8** %2, align 8
  %23 = load i8, i8* %22, align 1
  %24 = sext i8 %23 to i32
  %25 = icmp sle i32 %24, 90
  br i1 %25, label %32, label %26

26:                                               ; preds = %21, %16
  %27 = load i8*, i8** %2, align 8
  %28 = load i8, i8* %27, align 1
  %29 = sext i8 %28 to i32
  %30 = icmp eq i32 %29, 95
  br i1 %30, label %32, label %31

31:                                               ; preds = %26
  store i32 0, i32* %3, align 4
  br label %103

32:                                               ; preds = %26, %21, %11
  store i32 1, i32* %4, align 4
  br label %33

33:                                               ; preds = %99, %32
  %34 = load i8*, i8** %2, align 8
  %35 = load i32, i32* %4, align 4
  %36 = sext i32 %35 to i64
  %37 = getelementptr inbounds i8, i8* %34, i64 %36
  %38 = load i8, i8* %37, align 1
  %39 = sext i8 %38 to i32
  %40 = icmp ne i32 %39, 0
  br i1 %40, label %41, label %102

41:                                               ; preds = %33
  %42 = load i8*, i8** %2, align 8
  %43 = load i32, i32* %4, align 4
  %44 = sext i32 %43 to i64
  %45 = getelementptr inbounds i8, i8* %42, i64 %44
  %46 = load i8, i8* %45, align 1
  %47 = sext i8 %46 to i32
  %48 = icmp sge i32 %47, 97
  br i1 %48, label %49, label %57

49:                                               ; preds = %41
  %50 = load i8*, i8** %2, align 8
  %51 = load i32, i32* %4, align 4
  %52 = sext i32 %51 to i64
  %53 = getelementptr inbounds i8, i8* %50, i64 %52
  %54 = load i8, i8* %53, align 1
  %55 = sext i8 %54 to i32
  %56 = icmp sle i32 %55, 122
  br i1 %56, label %98, label %57

57:                                               ; preds = %49, %41
  %58 = load i8*, i8** %2, align 8
  %59 = load i32, i32* %4, align 4
  %60 = sext i32 %59 to i64
  %61 = getelementptr inbounds i8, i8* %58, i64 %60
  %62 = load i8, i8* %61, align 1
  %63 = sext i8 %62 to i32
  %64 = icmp sge i32 %63, 65
  br i1 %64, label %65, label %73

65:                                               ; preds = %57
  %66 = load i8*, i8** %2, align 8
  %67 = load i32, i32* %4, align 4
  %68 = sext i32 %67 to i64
  %69 = getelementptr inbounds i8, i8* %66, i64 %68
  %70 = load i8, i8* %69, align 1
  %71 = sext i8 %70 to i32
  %72 = icmp sle i32 %71, 90
  br i1 %72, label %98, label %73

73:                                               ; preds = %65, %57
  %74 = load i8*, i8** %2, align 8
  %75 = load i32, i32* %4, align 4
  %76 = sext i32 %75 to i64
  %77 = getelementptr inbounds i8, i8* %74, i64 %76
  %78 = load i8, i8* %77, align 1
  %79 = sext i8 %78 to i32
  %80 = icmp eq i32 %79, 95
  br i1 %80, label %98, label %81

81:                                               ; preds = %73
  %82 = load i8*, i8** %2, align 8
  %83 = load i32, i32* %4, align 4
  %84 = sext i32 %83 to i64
  %85 = getelementptr inbounds i8, i8* %82, i64 %84
  %86 = load i8, i8* %85, align 1
  %87 = sext i8 %86 to i32
  %88 = icmp sge i32 %87, 48
  br i1 %88, label %89, label %97

89:                                               ; preds = %81
  %90 = load i8*, i8** %2, align 8
  %91 = load i32, i32* %4, align 4
  %92 = sext i32 %91 to i64
  %93 = getelementptr inbounds i8, i8* %90, i64 %92
  %94 = load i8, i8* %93, align 1
  %95 = sext i8 %94 to i32
  %96 = icmp sle i32 %95, 57
  br i1 %96, label %98, label %97

97:                                               ; preds = %89, %81
  store i32 0, i32* %3, align 4
  br label %102

98:                                               ; preds = %89, %73, %65, %49
  br label %99

99:                                               ; preds = %98
  %100 = load i32, i32* %4, align 4
  %101 = add nsw i32 %100, 1
  store i32 %101, i32* %4, align 4
  br label %33

102:                                              ; preds = %97, %33
  br label %103

103:                                              ; preds = %102, %31
  %104 = load i32, i32* %3, align 4
  ret i32 %104
}

; Function Attrs: noinline nounwind uwtable
define dso_local void @main() #0 {
  %1 = alloca i32, align 4
  %2 = alloca i32, align 4
  %3 = alloca i32, align 4
  %4 = alloca i32, align 4
  %5 = alloca i32, align 4
  %6 = alloca i8*, align 8
  %7 = alloca i8**, align 8
  %8 = alloca i8**, align 8
  %9 = call i32 (i8*, ...) @__isoc99_scanf(i8* getelementptr inbounds ([4 x i8], [4 x i8]* @.str, i64 0, i64 0), i32* %1)
  %10 = load i32, i32* %1, align 4
  %11 = sext i32 %10 to i64
  %12 = mul i64 %11, 8
  %13 = call noalias i8* @malloc(i64 %12) #3
  %14 = bitcast i8* %13 to i8**
  store i8** %14, i8*** %7, align 8
  %15 = load i8**, i8*** %7, align 8
  store i8** %15, i8*** %8, align 8
  store i32 0, i32* %3, align 4
  br label %16

16:                                               ; preds = %40, %0
  %17 = load i32, i32* %3, align 4
  %18 = load i32, i32* %1, align 4
  %19 = icmp slt i32 %17, %18
  br i1 %19, label %20, label %43

20:                                               ; preds = %16
  %21 = call noalias i8* @malloc(i64 80) #3
  store i8* %21, i8** %6, align 8
  store i32 0, i32* %4, align 4
  br label %22

22:                                               ; preds = %30, %20
  %23 = load i32, i32* %4, align 4
  %24 = icmp slt i32 %23, 80
  br i1 %24, label %25, label %33

25:                                               ; preds = %22
  %26 = load i8*, i8** %6, align 8
  %27 = load i32, i32* %4, align 4
  %28 = sext i32 %27 to i64
  %29 = getelementptr inbounds i8, i8* %26, i64 %28
  store i8 0, i8* %29, align 1
  br label %30

30:                                               ; preds = %25
  %31 = load i32, i32* %4, align 4
  %32 = add nsw i32 %31, 1
  store i32 %32, i32* %4, align 4
  br label %22

33:                                               ; preds = %22
  %34 = load i8*, i8** %6, align 8
  %35 = call i32 (i8*, ...) bitcast (i32 (...)* @gets to i32 (i8*, ...)*)(i8* %34)
  %36 = load i8*, i8** %6, align 8
  %37 = load i8**, i8*** %7, align 8
  store i8* %36, i8** %37, align 8
  %38 = load i8**, i8*** %7, align 8
  %39 = getelementptr inbounds i8*, i8** %38, i32 1
  store i8** %39, i8*** %7, align 8
  br label %40

40:                                               ; preds = %33
  %41 = load i32, i32* %3, align 4
  %42 = add nsw i32 %41, 1
  store i32 %42, i32* %3, align 4
  br label %16

43:                                               ; preds = %16
  store i32 0, i32* %3, align 4
  br label %44

44:                                               ; preds = %53, %43
  %45 = load i32, i32* %3, align 4
  %46 = load i32, i32* %1, align 4
  %47 = icmp slt i32 %45, %46
  br i1 %47, label %48, label %58

48:                                               ; preds = %44
  %49 = load i8**, i8*** %8, align 8
  %50 = load i8*, i8** %49, align 8
  %51 = call i32 @panduan(i8* %50)
  %52 = call i32 (i8*, ...) @printf(i8* getelementptr inbounds ([4 x i8], [4 x i8]* @.str, i64 0, i64 0), i32 %51)
  br label %53

53:                                               ; preds = %48
  %54 = load i32, i32* %3, align 4
  %55 = add nsw i32 %54, 1
  store i32 %55, i32* %3, align 4
  %56 = load i8**, i8*** %8, align 8
  %57 = getelementptr inbounds i8*, i8** %56, i32 1
  store i8** %57, i8*** %8, align 8
  br label %44

58:                                               ; preds = %44
  ret void
}

declare dso_local i32 @__isoc99_scanf(i8*, ...) #1

; Function Attrs: nounwind
declare dso_local noalias i8* @malloc(i64) #2

declare dso_local i32 @gets(...) #1

declare dso_local i32 @printf(i8*, ...) #1


!llvm.module.flags = !{!0}
!llvm.ident = !{!1}

!0 = !{i32 1, !"wchar_size", i32 4}
!1 = !{!"clang version 10.0.0-4ubuntu1 "}
